; Function Attrs: mustprogress uwtable
define void @_Z9PrintSuitB5cxx11tc(ptr dead_on_unwind noalias writable sret(%"class.std::__cxx11::basic_string") align 8 %0, i16 noundef zeroext %1, i8 noundef signext %2) local_unnamed_addr #3 personality ptr @__gxx_personality_v0 {
  %4 = alloca %"class.std::allocator", align 1
  %.not = icmp eq i16 %1, 0
  br i1 %.not, label %5, label %11

5:                                                ; preds = %3
  call void @_ZNSaIcEC1Ev(ptr noundef nonnull align 1 dereferenceable(1) %4) #12
  %6 = invoke noundef ptr @_ZNSt7__cxx1112basic_stringIcSt11char_traitsIcESaIcEE13_M_local_dataEv(ptr noundef nonnull align 8 dereferenceable(32) %0)
          to label %.noexc unwind label %9

.noexc:                                           ; preds = %5
  invoke void @_ZNSt7__cxx1112basic_stringIcSt11char_traitsIcESaIcEE12_Alloc_hiderC1EPcRKS3_(ptr noundef nonnull align 8 dereferenceable(32) %0, ptr noundef %6, ptr noundef nonnull align 1 dereferenceable(1) %4)
          to label %.noexc16 unwind label %9

.noexc16:                                         ; preds = %.noexc
  invoke void @_ZNSt7__cxx1112basic_stringIcSt11char_traitsIcESaIcEE12_M_constructIPKcEEvT_S8_St20forward_iterator_tag(ptr noundef nonnull align 8 dereferenceable(32) %0, ptr noundef nonnull @.str, ptr noundef nonnull getelementptr inbounds nuw (i8, ptr @.str, i64 2))
          to label %_ZNSt7__cxx1112basic_stringIcSt11char_traitsIcESaIcEEC2IS3_EEPKcRKS3_.exit unwind label %7

7:                                                ; preds = %.noexc16
  %8 = landingpad { ptr, i32 }
          cleanup
  call void @_ZNSaIcED2Ev(ptr noundef nonnull align 8 dereferenceable(32) %0) #12
  br label %.body

_ZNSt7__cxx1112basic_stringIcSt11char_traitsIcESaIcEEC2IS3_EEPKcRKS3_.exit: ; preds = %.noexc16
  call void @_ZNSaIcED1Ev(ptr noundef nonnull align 1 dereferenceable(1) %4) #12
  br label %.loopexit

9:                                                ; preds = %.noexc, %5
  %10 = landingpad { ptr, i32 }
          cleanup
  br label %.body

.body:                                            ; preds = %7, %9
  %eh.lpad-body = phi { ptr, i32 } [ %10, %9 ], [ %8, %7 ]
  call void @_ZNSaIcED1Ev(ptr noundef nonnull align 1 dereferenceable(1) %4) #12
  br label %29

11:                                               ; preds = %3
  tail call void @_ZNSt7__cxx1112basic_stringIcSt11char_traitsIcESaIcEEC1Ev(ptr noundef nonnull align 8 dereferenceable(32) %0) #12
  %12 = sext i8 %2 to i64
  %13 = sub nsw i64 15, %12
  br label %14

14:                                               ; preds = %11, %27
  %indvars.iv = phi i64 [ 14, %11 ], [ %indvars.iv.next, %27 ]
  %15 = getelementptr inbounds nuw [16 x i16], ptr @bitMapRank, i64 0, i64 %indvars.iv
  %16 = load i16, ptr %15, align 2
  %17 = and i16 %16, %1
  %.not13 = icmp eq i16 %17, 0
  br i1 %.not13, label %27, label %18

18:                                               ; preds = %14
  %.not14 = icmp slt i64 %indvars.iv, %13
  br i1 %.not14, label %25, label %19

19:                                               ; preds = %18
  %20 = getelementptr inbounds nuw [16 x i8], ptr @cardRank, i64 0, i64 %indvars.iv
  %21 = load i8, ptr %20, align 1
  %22 = invoke noundef nonnull align 8 dereferenceable(32) ptr @_ZNSt7__cxx1112basic_stringIcSt11char_traitsIcESaIcEEpLEc(ptr noundef nonnull align 8 dereferenceable(32) %0, i8 noundef signext %21)
          to label %27 unwind label %23

23:                                               ; preds = %25, %19
  %24 = landingpad { ptr, i32 }
          cleanup
  tail call void @_ZNSt7__cxx1112basic_stringIcSt11char_traitsIcESaIcEED1Ev(ptr noundef nonnull align 8 dereferenceable(32) %0) #12
  br label %29

25:                                               ; preds = %18
  %26 = invoke noundef nonnull align 8 dereferenceable(32) ptr @_ZNSt7__cxx1112basic_stringIcSt11char_traitsIcESaIcEEpLEPKc(ptr noundef nonnull align 8 dereferenceable(32) %0, ptr noundef nonnull @.str.1)
          to label %27 unwind label %23

27:                                               ; preds = %14, %25, %19
  %indvars.iv.next = add nsw i64 %indvars.iv, -1
  %28 = icmp ugt i64 %indvars.iv, 2
  br i1 %28, label %14, label %.loopexit, !llvm.loop !6

.loopexit:                                        ; preds = %27, %_ZNSt7__cxx1112basic_stringIcSt11char_traitsIcESaIcEEC2IS3_EEPKcRKS3_.exit
  ret void

29:                                               ; preds = %23, %.body
  %.pn = phi { ptr, i32 } [ %24, %23 ], [ %eh.lpad-body, %.body ]
  resume { ptr, i32 } %.pn
}